; Function Attrs: mustprogress nofree norecurse nosync nounwind willreturn memory(read, inaccessiblemem: none) uwtable
define dso_local noundef float @_ZNK10btSoftBody7getMassEi(ptr nocapture noundef nonnull readonly align 8 dereferenceable(2064) %this, i32 noundef %node) local_unnamed_addr #10 align 2 {
entry:
  %m_data.i = getelementptr inbounds i8, ptr %this, i64 944
  %0 = load ptr, ptr %m_data.i, align 8
  %idxprom.i = sext i32 %node to i64
  %m_im = getelementptr inbounds %"struct.btSoftBody::Node", ptr %0, i64 %idxprom.i, i32 7
  %1 = load float, ptr %m_im, align 8
  %cmp = fcmp ogt float %1, 0.000000e+00
  %div = fdiv float 1.000000e+00, %1
  %cond = select i1 %cmp, float %div, float 0.000000e+00
  ret float %cond
}